; Function Attrs: nounwind uwtable
define ptr @l_Std_Time_instToStringDuration_leftPad___boxed(ptr noundef %0, ptr noundef %1) local_unnamed_addr #0 {
  %3 = getelementptr i8, ptr %1, i64 24
  %.val.i = load i64, ptr %3, align 8, !tbaa !12
  %4 = ptrtoint ptr %0 to i64
  %5 = and i64 %4, 1
  %.not.i8 = icmp eq i64 %5, 0
  br i1 %.not.i8, label %.critedge.i.i, label %6, !prof !8

6:                                                ; preds = %2
  %7 = lshr i64 %4, 1
  %8 = and i64 %.val.i, 9223372036854775807
  %9 = icmp samesign ult i64 %7, %8
  br i1 %9, label %l_Std_Time_instToStringDuration_leftPad.exit, label %10

10:                                               ; preds = %6
  %11 = sub nuw nsw i64 %7, %8
  %12 = shl nuw i64 %11, 1
  %13 = or disjoint i64 %12, 1
  %14 = inttoptr i64 %13 to ptr
  br label %l_Std_Time_instToStringDuration_leftPad.exit

.critedge.i.i:                                    ; preds = %2
  %15 = shl i64 %.val.i, 1
  %16 = or disjoint i64 %15, 1
  %17 = inttoptr i64 %16 to ptr
  %18 = tail call ptr @lean_nat_big_sub(ptr noundef %0, ptr noundef nonnull %17) #3
  br label %l_Std_Time_instToStringDuration_leftPad.exit

l_Std_Time_instToStringDuration_leftPad.exit:     ; preds = %6, %10, %.critedge.i.i
  %.1.i.i = phi ptr [ %18, %.critedge.i.i ], [ %14, %10 ], [ inttoptr (i64 1 to ptr), %6 ]
  %19 = load ptr, ptr @l_Std_Time_instToStringDuration_leftPad___closed__1, align 8, !tbaa !4
  %20 = tail call ptr @l_Nat_repeatTR_loop___at_Std_Time_instToStringDuration_leftPad___spec__1(i32 noundef 48, ptr noundef %.1.i.i, ptr noundef %19)
  %21 = tail call ptr @lean_string_append(ptr noundef %20, ptr noundef nonnull %1) #3
  %22 = ptrtoint ptr %1 to i64
  %23 = and i64 %22, 1
  %.not = icmp eq i64 %23, 0
  br i1 %.not, label %24, label %lean_dec.exit5

24:                                               ; preds = %l_Std_Time_instToStringDuration_leftPad.exit
  %25 = load i32, ptr %1, align 4, !tbaa !9
  %26 = icmp sgt i32 %25, 1
  br i1 %26, label %27, label %29, !prof !14

27:                                               ; preds = %24
  %28 = add nsw i32 %25, -1
  store i32 %28, ptr %1, align 4, !tbaa !9
  br label %lean_dec.exit5

29:                                               ; preds = %24
  %.not.i = icmp eq i32 %25, 0
  br i1 %.not.i, label %lean_dec.exit5, label %30

30:                                               ; preds = %29
  tail call void @lean_dec_ref_cold(ptr noundef nonnull %1) #3
  br label %lean_dec.exit5

lean_dec.exit5:                                   ; preds = %30, %29, %27, %l_Std_Time_instToStringDuration_leftPad.exit
  br i1 %.not.i8, label %31, label %lean_dec.exit

31:                                               ; preds = %lean_dec.exit5
  %32 = load i32, ptr %0, align 4, !tbaa !9
  %33 = icmp sgt i32 %32, 1
  br i1 %33, label %34, label %36, !prof !14

34:                                               ; preds = %31
  %35 = add nsw i32 %32, -1
  store i32 %35, ptr %0, align 4, !tbaa !9
  br label %lean_dec.exit

36:                                               ; preds = %31
  %.not.i6 = icmp eq i32 %32, 0
  br i1 %.not.i6, label %lean_dec.exit, label %37

37:                                               ; preds = %36
  tail call void @lean_dec_ref_cold(ptr noundef nonnull %0) #3
  br label %lean_dec.exit

lean_dec.exit:                                    ; preds = %37, %36, %34, %lean_dec.exit5
  ret ptr %21
}